; Function Attrs: mustprogress nofree norecurse nosync nounwind willreturn memory(read, inaccessiblemem: none) uwtable
define hidden noundef ptr @_ZN12CreateExNode8IdentityEP8PhaseGVN(ptr noundef nonnull readonly align 8 dereferenceable(64) %0, ptr nocapture noundef readonly %1) unnamed_addr #0 align 2 {
  %3 = getelementptr inbounds i8, ptr %0, i64 8
  %4 = load ptr, ptr %3, align 8
  %5 = getelementptr inbounds i8, ptr %4, i64 8
  %6 = load ptr, ptr %5, align 8
  %7 = getelementptr inbounds i8, ptr %1, i64 40
  %8 = load ptr, ptr %7, align 8
  %9 = getelementptr inbounds i8, ptr %6, i64 40
  %10 = load i32, ptr %9, align 8
  %11 = getelementptr inbounds i8, ptr %8, i64 16
  %12 = load ptr, ptr %11, align 8
  %13 = zext i32 %10 to i64
  %14 = getelementptr inbounds ptr, ptr %12, i64 %13
  %15 = load ptr, ptr %14, align 8
  %16 = load ptr, ptr @_ZN4Type3TOPE, align 8
  %17 = icmp eq ptr %15, %16
  br i1 %17, label %62, label %18

18:                                               ; preds = %2
  %19 = load ptr, ptr %4, align 8
  %20 = getelementptr inbounds i8, ptr %19, i64 40
  %21 = load i32, ptr %20, align 8
  %22 = zext i32 %21 to i64
  %23 = getelementptr inbounds ptr, ptr %12, i64 %22
  %24 = load ptr, ptr %23, align 8
  %25 = icmp eq ptr %24, %16
  br i1 %25, label %62, label %26

26:                                               ; preds = %18
  %27 = getelementptr inbounds i8, ptr %19, i64 8
  %28 = load ptr, ptr %27, align 8
  %29 = load ptr, ptr %28, align 8
  %30 = getelementptr inbounds i8, ptr %29, i64 40
  %31 = load i32, ptr %30, align 8
  %32 = zext i32 %31 to i64
  %33 = getelementptr inbounds ptr, ptr %12, i64 %32
  %34 = load ptr, ptr %33, align 8
  %35 = icmp eq ptr %34, %16
  br i1 %35, label %36, label %38

36:                                               ; preds = %26
  %37 = getelementptr inbounds i8, ptr %1, i64 16
  br label %.sink.split

38:                                               ; preds = %26
  %39 = getelementptr inbounds i8, ptr %6, i64 8
  %40 = load ptr, ptr %39, align 8
  %41 = load ptr, ptr %40, align 8
  %42 = getelementptr inbounds i8, ptr %19, i64 44
  %43 = load i32, ptr %42, align 4
  %44 = and i32 %43, 31
  %45 = icmp eq i32 %44, 24
  br i1 %45, label %46, label %57

46:                                               ; preds = %38
  %47 = getelementptr inbounds i8, ptr %29, i64 44
  %48 = load i32, ptr %47, align 4
  %49 = and i32 %48, 31
  %50 = icmp eq i32 %49, 29
  br i1 %50, label %51, label %57

51:                                               ; preds = %46
  %52 = getelementptr inbounds i8, ptr %29, i64 8
  %53 = load ptr, ptr %52, align 8
  %54 = getelementptr inbounds i8, ptr %53, i64 8
  %55 = load ptr, ptr %54, align 8
  %56 = icmp eq ptr %55, %6
  br i1 %56, label %62, label %57

57:                                               ; preds = %51, %46, %38
  %58 = getelementptr inbounds i8, ptr %41, i64 8
  br label %.sink.split

.sink.split:                                      ; preds = %36, %57
  %.sink = phi ptr [ %58, %57 ], [ %37, %36 ]
  %.sink8 = phi i64 [ 40, %57 ], [ 744, %36 ]
  %59 = load ptr, ptr %.sink, align 8
  %60 = getelementptr inbounds i8, ptr %59, i64 %.sink8
  %61 = load ptr, ptr %60, align 8
  br label %62

62:                                               ; preds = %.sink.split, %18, %2, %51
  %.0 = phi ptr [ %0, %51 ], [ %6, %2 ], [ %19, %18 ], [ %61, %.sink.split ]
  ret ptr %.0
}